target datalayout = "e-m:e-p270:32:32-p271:32:32-p272:64:64-i64:64-i128:128-f80:128-n8:16:32:64-S128"
target triple = "x86_64-pc-linux-gnu"

%struct.Expr = type { i32 }
%union.ListCell = type { ptr }
%struct.JsonFormat = type { i32, i32, i32, i32 }
%struct.FuncExpr = type { %struct.Expr, i32, i32, i8, i8, i32, i32, i32, ptr, i32 }

@.str.41 = private unnamed_addr constant [13 x i8] c"parse_expr.c\00", align 1
@.str.156 = private unnamed_addr constant [65 x i8] c"cannot use JSON FORMAT ENCODING clause for non-bytea input types\00", align 1
@__func__.transformJsonParseArg = private unnamed_addr constant [22 x i8] c"transformJsonParseArg\00", align 1

; Function Attrs: nounwind uwtable
define internal ptr @makeJsonByteaToTextConversion(ptr noundef %0, ptr noundef %1, i32 noundef %2) #0 {
  %4 = alloca ptr, align 8
  %5 = alloca ptr, align 8
  %6 = alloca i32, align 4
  %7 = alloca ptr, align 8
  %8 = alloca ptr, align 8
  %9 = alloca %union.ListCell, align 8
  %10 = alloca %union.ListCell, align 8
  store ptr %0, ptr %4, align 8
  store ptr %1, ptr %5, align 8
  store i32 %2, ptr %6, align 4
  call void @llvm.lifetime.start.p0(i64 8, ptr %7) #8
  %11 = load ptr, ptr %5, align 8
  %12 = call ptr @getJsonEncodingConst(ptr noundef %11)
  store ptr %12, ptr %7, align 8
  call void @llvm.lifetime.start.p0(i64 8, ptr %8) #8
  %13 = load ptr, ptr %4, align 8
  store ptr %13, ptr %9, align 8
  %14 = load ptr, ptr %7, align 8
  store ptr %14, ptr %10, align 8
  %15 = getelementptr inbounds nuw %union.ListCell, ptr %9, i32 0, i32 0
  %16 = load ptr, ptr %15, align 8
  %17 = getelementptr inbounds nuw %union.ListCell, ptr %10, i32 0, i32 0
  %18 = load ptr, ptr %17, align 8
  %19 = call ptr @list_make2_impl(i32 noundef 1, ptr %16, ptr %18)
  %20 = call ptr @makeFuncExpr(i32 noundef 1714, i32 noundef 25, ptr noundef %19, i32 noundef 0, i32 noundef 0, i32 noundef 0)
  store ptr %20, ptr %8, align 8
  %21 = load i32, ptr %6, align 4
  %22 = load ptr, ptr %8, align 8
  %23 = getelementptr inbounds nuw %struct.FuncExpr, ptr %22, i32 0, i32 9
  store i32 %21, ptr %23, align 8
  %24 = load ptr, ptr %8, align 8
  call void @llvm.lifetime.end.p0(i64 8, ptr %8) #8
  call void @llvm.lifetime.end.p0(i64 8, ptr %7) #8
  ret ptr %24
}

; Function Attrs: nounwind uwtable
define internal ptr @transformJsonParseArg(ptr noundef %0, ptr noundef %1, ptr noundef %2, ptr noundef %3) #0 {
  %5 = alloca ptr, align 8
  %6 = alloca ptr, align 8
  %7 = alloca ptr, align 8
  %8 = alloca ptr, align 8
  %9 = alloca ptr, align 8
  %10 = alloca ptr, align 8
  %11 = alloca ptr, align 8
  %12 = alloca i8, align 1
  %13 = alloca i8, align 1
  store ptr %0, ptr %5, align 8
  store ptr %1, ptr %6, align 8
  store ptr %2, ptr %7, align 8
  store ptr %3, ptr %8, align 8
  call void @llvm.lifetime.start.p0(i64 8, ptr %9) #8
  %14 = load ptr, ptr %5, align 8
  %15 = load ptr, ptr %6, align 8
  %16 = call ptr @transformExprRecurse(ptr noundef %14, ptr noundef %15)
  store ptr %16, ptr %9, align 8
  call void @llvm.lifetime.start.p0(i64 8, ptr %10) #8
  %17 = load ptr, ptr %9, align 8
  store ptr %17, ptr %10, align 8
  %18 = load ptr, ptr %10, align 8
  %19 = call i32 @exprType(ptr noundef %18)
  %20 = load ptr, ptr %8, align 8
  store i32 %19, ptr %20, align 4
  %21 = load ptr, ptr %8, align 8
  %22 = load i32, ptr %21, align 4
  %23 = icmp eq i32 %22, 17
  br i1 %23, label %24, label %37

24:                                               ; preds = %4
  call void @llvm.lifetime.start.p0(i64 8, ptr %11) #8
  %25 = load ptr, ptr %9, align 8
  store ptr %25, ptr %10, align 8
  %26 = load ptr, ptr %10, align 8
  %27 = load ptr, ptr %7, align 8
  %28 = load ptr, ptr %10, align 8
  %29 = call i32 @exprLocation(ptr noundef %28)
  %30 = call ptr @makeJsonByteaToTextConversion(ptr noundef %26, ptr noundef %27, i32 noundef %29)
  store ptr %30, ptr %10, align 8
  %31 = load ptr, ptr %8, align 8
  store i32 25, ptr %31, align 4
  %32 = load ptr, ptr %9, align 8
  %33 = load ptr, ptr %10, align 8
  %34 = load ptr, ptr %7, align 8
  %35 = call ptr @makeJsonValueExpr(ptr noundef %32, ptr noundef %33, ptr noundef %34)
  store ptr %35, ptr %11, align 8
  %36 = load ptr, ptr %11, align 8
  store ptr %36, ptr %10, align 8
  call void @llvm.lifetime.end.p0(i64 8, ptr %11) #8
  br label %77

37:                                               ; preds = %4
  call void @llvm.lifetime.start.p0(i64 1, ptr %12) #8
  call void @llvm.lifetime.start.p0(i64 1, ptr %13) #8
  %38 = load ptr, ptr %8, align 8
  %39 = load i32, ptr %38, align 4
  call void @get_type_category_preferred(i32 noundef %39, ptr noundef %12, ptr noundef %13)
  %40 = load ptr, ptr %8, align 8
  %41 = load i32, ptr %40, align 4
  %42 = icmp eq i32 %41, 705
  br i1 %42, label %47, label %43

43:                                               ; preds = %37
  %44 = load i8, ptr %12, align 1
  %45 = sext i8 %44 to i32
  %46 = icmp eq i32 %45, 83
  br i1 %46, label %47, label %54

47:                                               ; preds = %43, %37
  %48 = load ptr, ptr %5, align 8
  %49 = load ptr, ptr %10, align 8
  %50 = load ptr, ptr %8, align 8
  %51 = load i32, ptr %50, align 4
  %52 = call ptr @coerce_to_target_type(ptr noundef %48, ptr noundef %49, i32 noundef %51, i32 noundef 25, i32 noundef -1, i32 noundef 0, i32 noundef 2, i32 noundef -1)
  store ptr %52, ptr %10, align 8
  %53 = load ptr, ptr %8, align 8
  store i32 25, ptr %53, align 4
  br label %54

54:                                               ; preds = %47, %43
  %55 = load ptr, ptr %7, align 8
  %56 = getelementptr inbounds nuw %struct.JsonFormat, ptr %55, i32 0, i32 2
  %57 = load i32, ptr %56, align 4
  %58 = icmp ne i32 %57, 0
  br i1 %58, label %59, label %76

59:                                               ; preds = %54
  br label %60

60:                                               ; preds = %59
  br i1 true, label %61, label %63

61:                                               ; preds = %60
  %62 = call zeroext i1 @errstart_cold(i32 noundef 21, ptr noundef null) #9
  br i1 %62, label %65, label %73

63:                                               ; preds = %60
  %64 = call zeroext i1 @errstart(i32 noundef 21, ptr noundef null)
  br i1 %64, label %65, label %73

65:                                               ; preds = %63, %61
  %66 = call i32 @errcode(i32 noundef 1088)
  %67 = load ptr, ptr %5, align 8
  %68 = load ptr, ptr %7, align 8
  %69 = getelementptr inbounds nuw %struct.JsonFormat, ptr %68, i32 0, i32 3
  %70 = load i32, ptr %69, align 4
  %71 = call i32 @parser_errposition(ptr noundef %67, i32 noundef %70)
  %72 = call i32 (ptr, ...) @errmsg(ptr noundef @.str.156)
  call void @errfinish(ptr noundef @.str.41, i32 noundef 4080, ptr noundef @__func__.transformJsonParseArg)
  br label %73

73:                                               ; preds = %65, %63, %61
  unreachable

74:                                               ; No predecessors!
  br label %75

75:                                               ; preds = %74
  br label %76

76:                                               ; preds = %75, %54
  call void @llvm.lifetime.end.p0(i64 1, ptr %13) #8
  call void @llvm.lifetime.end.p0(i64 1, ptr %12) #8
  br label %77

77:                                               ; preds = %76, %24
  %78 = load ptr, ptr %10, align 8
  call void @llvm.lifetime.end.p0(i64 8, ptr %10) #8
  call void @llvm.lifetime.end.p0(i64 8, ptr %9) #8
  ret ptr %78
}