; Function Attrs: nounwind uwtable
define internal fastcc ptr @transformJsonParseArg(ptr noundef %0, ptr noundef %1, ptr noundef %2, ptr noundef nonnull captures(none) initializes((0, 4)) %3) unnamed_addr #0 {
  %5 = alloca i8, align 1
  %6 = alloca i8, align 1
  %7 = tail call fastcc ptr @transformExprRecurse(ptr noundef %0, ptr noundef %1)
  %8 = tail call i32 @exprType(ptr noundef %7) #9
  store i32 %8, ptr %3, align 4
  %9 = icmp eq i32 %8, 17
  br i1 %9, label %10, label %17

10:                                               ; preds = %4
  %11 = tail call i32 @exprLocation(ptr noundef %7) #9
  %12 = tail call fastcc ptr @getJsonEncodingConst(ptr noundef %2)
  %13 = tail call ptr @list_make2_impl(i32 noundef 1, ptr %7, ptr %12) #9
  %14 = tail call ptr @makeFuncExpr(i32 noundef 1714, i32 noundef 25, ptr noundef %13, i32 noundef 0, i32 noundef 0, i32 noundef 0) #9
  %15 = getelementptr inbounds nuw i8, ptr %14, i64 40
  store i32 %11, ptr %15, align 8
  store i32 25, ptr %3, align 4
  %16 = tail call ptr @makeJsonValueExpr(ptr noundef %7, ptr noundef %14, ptr noundef %2) #9
  br label %35

17:                                               ; preds = %4
  call void @llvm.lifetime.start.p0(i64 1, ptr nonnull %5) #9
  call void @llvm.lifetime.start.p0(i64 1, ptr nonnull %6) #9
  call void @get_type_category_preferred(i32 noundef %8, ptr noundef nonnull %5, ptr noundef nonnull %6) #9
  %18 = load i32, ptr %3, align 4
  %19 = icmp eq i32 %18, 705
  %20 = load i8, ptr %5, align 1
  %21 = icmp eq i8 %20, 83
  %or.cond = select i1 %19, i1 true, i1 %21
  br i1 %or.cond, label %22, label %24

22:                                               ; preds = %17
  %23 = call ptr @coerce_to_target_type(ptr noundef %0, ptr noundef %7, i32 noundef %18, i32 noundef 25, i32 noundef -1, i32 noundef 0, i32 noundef 2, i32 noundef -1) #9
  store i32 25, ptr %3, align 4
  br label %24

24:                                               ; preds = %17, %22
  %.1 = phi ptr [ %23, %22 ], [ %7, %17 ]
  %25 = getelementptr inbounds nuw i8, ptr %2, i64 8
  %26 = load i32, ptr %25, align 4
  %.not = icmp eq i32 %26, 0
  br i1 %.not, label %34, label %27

27:                                               ; preds = %24
  %28 = call zeroext i1 @errstart_cold(i32 noundef 21, ptr noundef null) #10
  call void @llvm.assume(i1 %28)
  %29 = call i32 @errcode(i32 noundef 1088) #9
  %30 = getelementptr inbounds nuw i8, ptr %2, i64 12
  %31 = load i32, ptr %30, align 4
  %32 = call i32 @parser_errposition(ptr noundef %0, i32 noundef %31) #9
  %33 = call i32 (ptr, ...) @errmsg(ptr noundef nonnull @.str.156) #9
  call void @errfinish(ptr noundef nonnull @.str.41, i32 noundef 4080, ptr noundef nonnull @__func__.transformJsonParseArg) #9
  unreachable

34:                                               ; preds = %24
  call void @llvm.lifetime.end.p0(i64 1, ptr nonnull %6) #9
  call void @llvm.lifetime.end.p0(i64 1, ptr nonnull %5) #9
  br label %35

35:                                               ; preds = %34, %10
  %.0 = phi ptr [ %16, %10 ], [ %.1, %34 ]
  ret ptr %.0
}